target datalayout = "e-m:e-p270:32:32-p271:32:32-p272:64:64-i64:64-i128:128-f80:128-n8:16:32:64-S128"
target triple = "x86_64-pc-linux-gnu"

%struct.wtap_block = type { ptr, ptr, ptr, i32 }
%struct._GArray = type { ptr, i32 }

; Function Attrs: nounwind null_pointer_is_valid sspstrong uwtable
define ptr @wtap_block_ref(ptr noundef %0) #2 {
  %2 = alloca ptr, align 8
  %3 = alloca ptr, align 8
  %4 = alloca i32, align 4
  %5 = alloca i32, align 4
  store ptr %0, ptr %3, align 8
  %6 = load ptr, ptr %3, align 8
  %7 = icmp eq ptr %6, null
  br i1 %7, label %8, label %9

8:                                                ; preds = %1
  store ptr null, ptr %2, align 8
  br label %15

9:                                                ; preds = %1
  %10 = load ptr, ptr %3, align 8
  %11 = getelementptr inbounds nuw %struct.wtap_block, ptr %10, i32 0, i32 3
  store i32 1, ptr %4, align 4
  %12 = load i32, ptr %4, align 4
  %13 = atomicrmw add ptr %11, i32 %12 seq_cst, align 8
  store i32 %13, ptr %5, align 4
  %14 = load ptr, ptr %3, align 8
  store ptr %14, ptr %2, align 8
  br label %15

15:                                               ; preds = %9, %8
  %16 = load ptr, ptr %2, align 8
  ret ptr %16
}

; Function Attrs: null_pointer_is_valid sspstrong uwtable
define void @wtap_block_array_ref(ptr noundef %0) #0 {
  %2 = alloca ptr, align 8
  %3 = alloca i32, align 4
  %4 = alloca i32, align 4
  store ptr %0, ptr %2, align 8
  call void @llvm.lifetime.start.p0(i64 4, ptr %3) #15
  %5 = load ptr, ptr %2, align 8
  %6 = icmp eq ptr %5, null
  br i1 %6, label %7, label %8

7:                                                ; preds = %1
  store i32 1, ptr %4, align 4
  br label %30

8:                                                ; preds = %1
  store i32 0, ptr %3, align 4
  br label %9

9:                                                ; preds = %24, %8
  %10 = load i32, ptr %3, align 4
  %11 = load ptr, ptr %2, align 8
  %12 = getelementptr inbounds nuw %struct._GArray, ptr %11, i32 0, i32 1
  %13 = load i32, ptr %12, align 8
  %14 = icmp ult i32 %10, %13
  br i1 %14, label %15, label %27

15:                                               ; preds = %9
  %16 = load ptr, ptr %2, align 8
  %17 = getelementptr inbounds nuw %struct._GArray, ptr %16, i32 0, i32 0
  %18 = load ptr, ptr %17, align 8
  %19 = load i32, ptr %3, align 4
  %20 = zext i32 %19 to i64
  %21 = getelementptr ptr, ptr %18, i64 %20
  %22 = load ptr, ptr %21, align 8
  %23 = call ptr @wtap_block_ref(ptr noundef %22)
  br label %24

24:                                               ; preds = %15
  %25 = load i32, ptr %3, align 4
  %26 = add i32 %25, 1
  store i32 %26, ptr %3, align 4
  br label %9, !llvm.loop !9

27:                                               ; preds = %9
  %28 = load ptr, ptr %2, align 8
  %29 = call ptr @g_array_ref(ptr noundef %28)
  store i32 0, ptr %4, align 4
  br label %30

30:                                               ; preds = %27, %7
  call void @llvm.lifetime.end.p0(i64 4, ptr %3) #15
  %31 = load i32, ptr %4, align 4
  switch i32 %31, label %33 [
    i32 0, label %32
    i32 1, label %32
  ]

32:                                               ; preds = %30, %30
  ret void

33:                                               ; preds = %30
  unreachable
}