; Function Attrs: null_pointer_is_valid sspstrong uwtable
define void @wtap_block_array_ref(ptr noundef %0) local_unnamed_addr #0 {
  %2 = icmp eq ptr %0, null
  br i1 %2, label %17, label %.preheader

.preheader:                                       ; preds = %1
  %3 = getelementptr inbounds nuw i8, ptr %0, i64 8
  %4 = load i32, ptr %3, align 8
  %.not = icmp eq i32 %4, 0
  br i1 %.not, label %._crit_edge, label %.lr.ph

.lr.ph:                                           ; preds = %.preheader, %wtap_block_ref.exit
  %5 = phi i32 [ %13, %wtap_block_ref.exit ], [ %4, %.preheader ]
  %indvars.iv = phi i64 [ %indvars.iv.next, %wtap_block_ref.exit ], [ 0, %.preheader ]
  %6 = load ptr, ptr %0, align 8
  %7 = getelementptr ptr, ptr %6, i64 %indvars.iv
  %8 = load ptr, ptr %7, align 8
  %9 = icmp eq ptr %8, null
  br i1 %9, label %wtap_block_ref.exit, label %10

10:                                               ; preds = %.lr.ph
  %11 = getelementptr inbounds nuw i8, ptr %8, i64 24
  %12 = atomicrmw add ptr %11, i32 1 seq_cst, align 8
  %.pre = load i32, ptr %3, align 8
  br label %wtap_block_ref.exit

wtap_block_ref.exit:                              ; preds = %.lr.ph, %10
  %13 = phi i32 [ %5, %.lr.ph ], [ %.pre, %10 ]
  %indvars.iv.next = add nuw nsw i64 %indvars.iv, 1
  %14 = zext i32 %13 to i64
  %15 = icmp samesign ult i64 %indvars.iv.next, %14
  br i1 %15, label %.lr.ph, label %._crit_edge, !llvm.loop !9

._crit_edge:                                      ; preds = %wtap_block_ref.exit, %.preheader
  %16 = tail call ptr @g_array_ref(ptr noundef nonnull %0)
  br label %17

17:                                               ; preds = %1, %._crit_edge
  ret void
}